Certificate:
    Data:
        Version: 3 (0x2)
        Serial Number:
            b9:3f:73:d9:3e:21:c9:5a
        Signature Algorithm: sha1WithRSAEncryption
        Issuer: CN=Certification Authority
        Validity
            Not Before: Feb 12 15:42:51 2016 GMT
            Not After : Feb 11 15:42:51 2019 GMT
        Subject: CN=Certification Authority
        Subject Public Key Info:
            Public Key Algorithm: rsaEncryption
            RSA Public Key: (512 bit)
                Modulus (512 bit):
                    00:bc:d9:45:41:b0:1d:d8:6f:5a:17:21:aa:58:d1:
                    32:69:6a:d8:2a:e3:00:f4:64:28:b7:03:bf:63:5f:
                    2c:d6:4b:29:ff:61:fa:85:e4:5b:8d:8e:e3:42:4a:
                    8c:6a:bd:77:b2:81:85:e7:09:d0:d0:31:07:0f:f4:
                    ea:ca:84:26:c1
                Exponent: 65537 (0x10001)
        X509v3 extensions:
            X509v3 Subject Key Identifier: 
                E2:3C:5E:A8:48:1A:BA:7B:F7:96:2D:8C:9B:61:7C:68:C8:C9:B8:29
            X509v3 Authority Key Identifier: 
                keyid:E2:3C:5E:A8:48:1A:BA:7B:F7:96:2D:8C:9B:61:7C:68:C8:C9:B8:29
                DirName:/CN=Certification Authority
                serial:B9:3F:73:D9:3E:21:C9:5A

            X509v3 Basic Constraints: 
                CA:TRUE
    Signature Algorithm: sha1WithRSAEncryption
        b9:82:0c:28:c8:74:2f:d1:83:01:ce:ed:61:40:d9:23:0f:26:
        a8:48:bc:cf:79:e5:dd:56:4c:5a:d5:77:2f:d6:dd:e4:5a:52:
        4a:d3:be:d8:f2:cd:47:8c:69:51:22:f7:5b:d7:84:2c:8b:22:
        c9:15:b6:c1:2c:31:52:7c:ec:75
-----BEGIN CERTIFICATE-----
MIIBwjCCAWygAwIBAgIJALk/c9k+IclaMA0GCSqGSIb3DQEBBQUAMCIxIDAeBgNV
BAMTF0NlcnRpZmljYXRpb24gQXV0aG9yaXR5MB4XDTE2MDIxMjE1NDI1MVoXDTE5
MDIxMTE1NDI1MVowIjEgMB4GA1UEAxMXQ2VydGlmaWNhdGlvbiBBdXRob3JpdHkw
XDANBgkqhkiG9w0BAQEFAANLADBIAkEAvNlFQbAd2G9aFyGqWNEyaWrYKuMA9GQo
twO/Y18s1ksp/2H6heRbjY7jQkqMar13soGF5wnQ0DEHD/TqyoQmwQIDAQABo4GE
MIGBMB0GA1UdDgQWBBTiPF6oSBq6e/eWLYybYXxoyMm4KTBSBgNVHSMESzBJgBTi
PF6oSBq6e/eWLYybYXxoyMm4KaEmpCQwIjEgMB4GA1UEAxMXQ2VydGlmaWNhdGlv
biBBdXRob3JpdHmCCQC5P3PZPiHJWjAMBgNVHRMEBTADAQH/MA0GCSqGSIb3DQEB
BQUAA0EAuYIMKMh0L9GDAc7tYUDZIw8mqEi8z3nl3VZMWtV3L9bd5FpSStO+2PLN
R4xpUSL3W9eELIsiyRW2wSwxUnzsdQ==
-----END CERTIFICATE-----
