Certificate:
    Data:
        Version: 3 (0x2)
        Serial Number:
            b9:3f:73:d9:3e:21:c9:5c
        Signature Algorithm: sha1WithRSAEncryption
        Issuer: CN=Certification Authority
        Validity
            Not Before: Feb 12 15:42:52 2016 GMT
            Not After : Feb 11 15:42:52 2017 GMT
        Subject: CN=server
        Subject Public Key Info:
            Public Key Algorithm: rsaEncryption
            RSA Public Key: (1024 bit)
                Modulus (1024 bit):
                    00:c4:1b:77:3f:cf:7d:86:74:ee:15:d3:ab:e0:f7:
                    78:ec:17:7a:bb:f6:be:d0:57:05:b8:ce:4f:75:d6:
                    28:07:37:d1:89:43:25:bf:82:cc:ef:c7:6b:c8:d0:
                    a6:bc:30:64:f4:0f:9d:97:4d:e9:9e:cb:8f:1d:af:
                    d7:9f:a4:13:41:e4:5d:44:39:b2:ad:0f:59:d9:4c:
                    01:cb:af:b3:2a:e8:5a:7e:c1:cc:4e:aa:03:7d:9c:
                    89:1d:df:c6:39:b2:1e:a7:04:05:f4:86:fd:8c:80:
                    45:6f:82:b0:16:2d:10:b3:28:bc:51:a3:1d:a6:bc:
                    e4:94:da:dd:e5:9a:e0:de:0f
                Exponent: 65537 (0x10001)
        X509v3 extensions:
            X509v3 Basic Constraints: 
                CA:FALSE
            Netscape Comment: 
                OpenSSL Generated Certificate
            X509v3 Subject Key Identifier: 
                F8:C7:5D:75:AA:A8:6B:21:74:10:D9:16:BE:50:9B:EA:A7:26:55:FD
            X509v3 Authority Key Identifier: 
                keyid:E2:3C:5E:A8:48:1A:BA:7B:F7:96:2D:8C:9B:61:7C:68:C8:C9:B8:29

    Signature Algorithm: sha1WithRSAEncryption
        38:3c:dc:74:f1:2d:aa:dc:78:d7:53:97:0f:07:a0:7e:78:60:
        62:82:f9:f5:8e:54:4b:c3:6c:92:7d:27:77:90:e2:0c:3c:2e:
        86:b2:24:4b:5a:e4:1e:58:e5:19:f9:bf:53:08:aa:8d:86:65:
        92:ee:f5:2f:b4:56:75:f0:a4:85
-----BEGIN CERTIFICATE-----
MIIB6zCCAZWgAwIBAgIJALk/c9k+IclcMA0GCSqGSIb3DQEBBQUAMCIxIDAeBgNV
BAMTF0NlcnRpZmljYXRpb24gQXV0aG9yaXR5MB4XDTE2MDIxMjE1NDI1MloXDTE3
MDIxMTE1NDI1MlowETEPMA0GA1UEAxMGc2VydmVyMIGfMA0GCSqGSIb3DQEBAQUA
A4GNADCBiQKBgQDEG3c/z32GdO4V06vg93jsF3q79r7QVwW4zk911igHN9GJQyW/
gszvx2vI0Ka8MGT0D52XTemey48dr9efpBNB5F1EObKtD1nZTAHLr7Mq6Fp+wcxO
qgN9nIkd38Y5sh6nBAX0hv2MgEVvgrAWLRCzKLxRox2mvOSU2t3lmuDeDwIDAQAB
o3sweTAJBgNVHRMEAjAAMCwGCWCGSAGG+EIBDQQfFh1PcGVuU1NMIEdlbmVyYXRl
ZCBDZXJ0aWZpY2F0ZTAdBgNVHQ4EFgQU+MdddaqoayF0ENkWvlCb6qcmVf0wHwYD
VR0jBBgwFoAU4jxeqEgaunv3li2Mm2F8aMjJuCkwDQYJKoZIhvcNAQEFBQADQQA4
PNx08S2q3HjXU5cPB6B+eGBigvn1jlRLw2ySfSd3kOIMPC6GsiRLWuQeWOUZ+b9T
CKqNhmWS7vUvtFZ18KSF
-----END CERTIFICATE-----
