Certificate:
    Data:
        Version: 3 (0x2)
        Serial Number:
            b9:3f:73:d9:3e:21:c9:5b
        Signature Algorithm: sha1WithRSAEncryption
        Issuer: CN=Certification Authority
        Validity
            Not Before: Feb 12 15:42:51 2016 GMT
            Not After : Feb 11 15:42:51 2017 GMT
        Subject: CN=testuser
        Subject Public Key Info:
            Public Key Algorithm: rsaEncryption
            RSA Public Key: (1024 bit)
                Modulus (1024 bit):
                    00:db:1b:83:0a:3a:9c:c8:b5:6c:36:5b:94:9c:82:
                    64:9f:c6:b8:23:3b:50:2d:84:4c:2c:38:19:29:8a:
                    8c:63:44:39:da:c5:b4:f4:45:47:5e:15:db:24:03:
                    70:f4:99:26:bc:ce:4d:91:f6:bb:cb:70:3e:f8:d6:
                    5d:8d:68:86:aa:32:1e:32:0f:3e:d1:81:89:ce:f4:
                    cc:ed:60:ae:db:f2:ec:9d:db:e1:dd:a4:dd:77:52:
                    91:dd:7f:a4:e3:07:3b:75:33:85:f7:1a:f8:de:57:
                    c9:e0:d8:aa:6d:cd:89:5b:d7:d2:44:af:e7:5f:f6:
                    18:17:50:66:c6:3e:32:ad:b9
                Exponent: 65537 (0x10001)
        X509v3 extensions:
            X509v3 Basic Constraints: 
                CA:FALSE
            Netscape Comment: 
                OpenSSL Generated Certificate
            X509v3 Subject Key Identifier: 
                9D:81:5A:CD:53:09:1D:20:9E:A9:42:91:46:42:5E:B7:3D:D1:71:9C
            X509v3 Authority Key Identifier: 
                keyid:E2:3C:5E:A8:48:1A:BA:7B:F7:96:2D:8C:9B:61:7C:68:C8:C9:B8:29

    Signature Algorithm: sha1WithRSAEncryption
        71:5f:7a:1c:2e:7e:01:de:9d:f7:39:3a:61:96:0f:fc:71:79:
        8b:bf:d8:c4:99:ad:48:10:43:6f:8a:3d:b5:70:c0:cd:ca:1a:
        a3:17:fc:06:4d:ae:fd:51:3d:8a:d2:9d:3f:56:68:18:60:79:
        ce:02:d9:1b:7e:34:a4:9a:cc:cf
-----BEGIN CERTIFICATE-----
MIIB7TCCAZegAwIBAgIJALk/c9k+IclbMA0GCSqGSIb3DQEBBQUAMCIxIDAeBgNV
BAMTF0NlcnRpZmljYXRpb24gQXV0aG9yaXR5MB4XDTE2MDIxMjE1NDI1MVoXDTE3
MDIxMTE1NDI1MVowEzERMA8GA1UEAxMIdGVzdHVzZXIwgZ8wDQYJKoZIhvcNAQEB
BQADgY0AMIGJAoGBANsbgwo6nMi1bDZblJyCZJ/GuCM7UC2ETCw4GSmKjGNEOdrF
tPRFR14V2yQDcPSZJrzOTZH2u8twPvjWXY1ohqoyHjIPPtGBic70zO1grtvy7J3b
4d2k3XdSkd1/pOMHO3Uzhfca+N5XyeDYqm3NiVvX0kSv51/2GBdQZsY+Mq25AgMB
AAGjezB5MAkGA1UdEwQCMAAwLAYJYIZIAYb4QgENBB8WHU9wZW5TU0wgR2VuZXJh
dGVkIENlcnRpZmljYXRlMB0GA1UdDgQWBBSdgVrNUwkdIJ6pQpFGQl63PdFxnDAf
BgNVHSMEGDAWgBTiPF6oSBq6e/eWLYybYXxoyMm4KTANBgkqhkiG9w0BAQUFAANB
AHFfehwufgHenfc5OmGWD/xxeYu/2MSZrUgQQ2+KPbVwwM3KGqMX/AZNrv1RPYrS
nT9WaBhgec4C2Rt+NKSazM8=
-----END CERTIFICATE-----
